; ModuleID = '34/432.c'
source_filename = "34/432.c"
target datalayout = "e-m:e-p270:32:32-p271:32:32-p272:64:64-i64:64-f80:128-n8:16:32:64-S128"
target triple = "x86_64-pc-linux-gnu"

@.str = private unnamed_addr constant [3 x i8] c"%d\00", align 1
@.str.1 = private unnamed_addr constant [4 x i8] c"End\00", align 1
@.str.2 = private unnamed_addr constant [11 x i8] c"%d*3+1=%d\0A\00", align 1
@.str.3 = private unnamed_addr constant [9 x i8] c"%d/2=%d\0A\00", align 1

; Function Attrs: noinline nounwind uwtable
define dso_local i32 @main() #0 {
  %1 = alloca i32, align 4
  %2 = alloca i32, align 4
  %3 = alloca i32, align 4
  %4 = alloca i32, align 4
  store i32 0, i32* %1, align 4
  %5 = call i32 (i8*, ...) @__isoc99_scanf(i8* getelementptr inbounds ([3 x i8], [3 x i8]* @.str, i64 0, i64 0), i32* %2)
  br label %6

6:                                                ; preds = %49, %0
  %7 = load i32, i32* %2, align 4
  %8 = icmp eq i32 %7, 1
  br i1 %8, label %9, label %11

9:                                                ; preds = %6
  %10 = call i32 (i8*, ...) @printf(i8* getelementptr inbounds ([4 x i8], [4 x i8]* @.str.1, i64 0, i64 0))
  store i32 0, i32* %2, align 4
  br label %11

11:                                               ; preds = %9, %6
  %12 = load i32, i32* %2, align 4
  %13 = icmp ne i32 %12, 0
  br i1 %13, label %14, label %29

14:                                               ; preds = %11
  %15 = load i32, i32* %2, align 4
  %16 = icmp ne i32 %15, 1
  br i1 %16, label %17, label %29

17:                                               ; preds = %14
  %18 = load i32, i32* %2, align 4
  %19 = srem i32 %18, 2
  %20 = icmp eq i32 %19, 1
  br i1 %20, label %21, label %29

21:                                               ; preds = %17
  %22 = load i32, i32* %2, align 4
  %23 = mul nsw i32 %22, 3
  %24 = add nsw i32 %23, 1
  store i32 %24, i32* %3, align 4
  %25 = load i32, i32* %2, align 4
  %26 = load i32, i32* %3, align 4
  %27 = call i32 (i8*, ...) @printf(i8* getelementptr inbounds ([11 x i8], [11 x i8]* @.str.2, i64 0, i64 0), i32 %25, i32 %26)
  %28 = load i32, i32* %3, align 4
  store i32 %28, i32* %2, align 4
  br label %29

29:                                               ; preds = %21, %17, %14, %11
  %30 = load i32, i32* %2, align 4
  %31 = icmp ne i32 %30, 0
  br i1 %31, label %32, label %46

32:                                               ; preds = %29
  %33 = load i32, i32* %2, align 4
  %34 = icmp ne i32 %33, 1
  br i1 %34, label %35, label %46

35:                                               ; preds = %32
  %36 = load i32, i32* %2, align 4
  %37 = srem i32 %36, 2
  %38 = icmp eq i32 %37, 0
  br i1 %38, label %39, label %46

39:                                               ; preds = %35
  %40 = load i32, i32* %2, align 4
  %41 = sdiv i32 %40, 2
  store i32 %41, i32* %3, align 4
  %42 = load i32, i32* %2, align 4
  %43 = load i32, i32* %3, align 4
  %44 = call i32 (i8*, ...) @printf(i8* getelementptr inbounds ([9 x i8], [9 x i8]* @.str.3, i64 0, i64 0), i32 %42, i32 %43)
  %45 = load i32, i32* %3, align 4
  store i32 %45, i32* %2, align 4
  br label %46

46:                                               ; preds = %39, %35, %32, %29
  %47 = load i32, i32* %4, align 4
  %48 = add nsw i32 %47, 1
  store i32 %48, i32* %4, align 4
  br label %49

49:                                               ; preds = %46
  %50 = load i32, i32* %2, align 4
  %51 = icmp ne i32 %50, 0
  br i1 %51, label %6, label %52

52:                                               ; preds = %49
  ret i32 0
}

declare dso_local i32 @__isoc99_scanf(i8*, ...) #1

declare dso_local i32 @printf(i8*, ...) #1


!llvm.module.flags = !{!0}
!llvm.ident = !{!1}

!0 = !{i32 1, !"wchar_size", i32 4}
!1 = !{!"clang version 10.0.0-4ubuntu1 "}
